target datalayout = "e-m:e-p270:32:32-p271:32:32-p272:64:64-i64:64-i128:128-f80:128-n8:16:32:64-S128"
target triple = "x86_64-pc-linux-gnu"

%struct.pack_info_t = type { [256 x i8], [6 x %struct.filter_info_t], i32, i32, %struct.chunk_info_t, i64 }
%struct.filter_info_t = type { i32, i32, [20 x i32], i64 }
%struct.chunk_info_t = type { [32 x i64], i32 }

@.str = private unnamed_addr constant [2 x i8] zeroinitializer, align 1

; Function Attrs: nounwind uwtable
define dso_local void @init_packobject(ptr noundef %0) #0 {
  %2 = alloca ptr, align 8
  %3 = alloca i32, align 4
  %4 = alloca i32, align 4
  store ptr %0, ptr %2, align 8, !tbaa !4
  call void @llvm.lifetime.start.p0(i64 4, ptr %3) #9
  call void @llvm.lifetime.start.p0(i64 4, ptr %4) #9
  %5 = load ptr, ptr %2, align 8, !tbaa !4
  %6 = getelementptr inbounds nuw %struct.pack_info_t, ptr %5, i32 0, i32 0
  %7 = getelementptr inbounds [256 x i8], ptr %6, i64 0, i64 0
  %8 = call ptr @strcpy(ptr noundef %7, ptr noundef @.str) #9
  store i32 0, ptr %3, align 4, !tbaa !8
  br label %9

9:                                                ; preds = %42, %1
  %10 = load i32, ptr %3, align 4, !tbaa !8
  %11 = icmp slt i32 %10, 6
  br i1 %11, label %12, label %45

12:                                               ; preds = %9
  %13 = load ptr, ptr %2, align 8, !tbaa !4
  %14 = getelementptr inbounds nuw %struct.pack_info_t, ptr %13, i32 0, i32 1
  %15 = load i32, ptr %3, align 4, !tbaa !8
  %16 = sext i32 %15 to i64
  %17 = getelementptr inbounds [6 x %struct.filter_info_t], ptr %14, i64 0, i64 %16
  %18 = getelementptr inbounds nuw %struct.filter_info_t, ptr %17, i32 0, i32 0
  store i32 -1, ptr %18, align 8, !tbaa !10
  %19 = load ptr, ptr %2, align 8, !tbaa !4
  %20 = getelementptr inbounds nuw %struct.pack_info_t, ptr %19, i32 0, i32 1
  %21 = load i32, ptr %3, align 4, !tbaa !8
  %22 = sext i32 %21 to i64
  %23 = getelementptr inbounds [6 x %struct.filter_info_t], ptr %20, i64 0, i64 %22
  %24 = getelementptr inbounds nuw %struct.filter_info_t, ptr %23, i32 0, i32 3
  store i64 20, ptr %24, align 8, !tbaa !13
  store i32 0, ptr %4, align 4, !tbaa !8
  br label %25

25:                                               ; preds = %38, %12
  %26 = load i32, ptr %4, align 4, !tbaa !8
  %27 = icmp slt i32 %26, 20
  br i1 %27, label %28, label %41

28:                                               ; preds = %25
  %29 = load ptr, ptr %2, align 8, !tbaa !4
  %30 = getelementptr inbounds nuw %struct.pack_info_t, ptr %29, i32 0, i32 1
  %31 = load i32, ptr %3, align 4, !tbaa !8
  %32 = sext i32 %31 to i64
  %33 = getelementptr inbounds [6 x %struct.filter_info_t], ptr %30, i64 0, i64 %32
  %34 = getelementptr inbounds nuw %struct.filter_info_t, ptr %33, i32 0, i32 2
  %35 = load i32, ptr %4, align 4, !tbaa !8
  %36 = sext i32 %35 to i64
  %37 = getelementptr inbounds [20 x i32], ptr %34, i64 0, i64 %36
  store i32 0, ptr %37, align 4, !tbaa !8
  br label %38

38:                                               ; preds = %28
  %39 = load i32, ptr %4, align 4, !tbaa !8
  %40 = add nsw i32 %39, 1
  store i32 %40, ptr %4, align 4, !tbaa !8
  br label %25, !llvm.loop !14

41:                                               ; preds = %25
  br label %42

42:                                               ; preds = %41
  %43 = load i32, ptr %3, align 4, !tbaa !8
  %44 = add nsw i32 %43, 1
  store i32 %44, ptr %3, align 4, !tbaa !8
  br label %9, !llvm.loop !16

45:                                               ; preds = %9
  %46 = load ptr, ptr %2, align 8, !tbaa !4
  %47 = getelementptr inbounds nuw %struct.pack_info_t, ptr %46, i32 0, i32 4
  %48 = getelementptr inbounds nuw %struct.chunk_info_t, ptr %47, i32 0, i32 1
  store i32 -1, ptr %48, align 8, !tbaa !17
  %49 = load ptr, ptr %2, align 8, !tbaa !4
  %50 = getelementptr inbounds nuw %struct.pack_info_t, ptr %49, i32 0, i32 5
  store i64 -1, ptr %50, align 8, !tbaa !20
  %51 = load ptr, ptr %2, align 8, !tbaa !4
  %52 = getelementptr inbounds nuw %struct.pack_info_t, ptr %51, i32 0, i32 3
  store i32 -1, ptr %52, align 4, !tbaa !21
  %53 = load ptr, ptr %2, align 8, !tbaa !4
  %54 = getelementptr inbounds nuw %struct.pack_info_t, ptr %53, i32 0, i32 2
  store i32 0, ptr %54, align 8, !tbaa !22
  call void @llvm.lifetime.end.p0(i64 4, ptr %4) #9
  call void @llvm.lifetime.end.p0(i64 4, ptr %3) #9
  ret void
}