; Function Attrs: nofree norecurse nosync nounwind memory(argmem: write) uwtable
define dso_local void @init_packobject(ptr noundef writeonly captures(none) initializes((0, 1)) %0) local_unnamed_addr #0 {
  store i8 0, ptr %0, align 1
  %2 = getelementptr inbounds nuw i8, ptr %0, i64 256
  %invariant.gep = getelementptr i8, ptr %0, i64 264
  br label %3

3:                                                ; preds = %1, %3
  %indvar = phi i64 [ 0, %1 ], [ %indvar.next, %3 ]
  %4 = mul nuw nsw i64 %indvar, 96
  %gep = getelementptr i8, ptr %invariant.gep, i64 %4
  %5 = getelementptr inbounds nuw [6 x %struct.filter_info_t], ptr %2, i64 0, i64 %indvar
  store i32 -1, ptr %5, align 8, !tbaa !4
  %6 = getelementptr inbounds nuw i8, ptr %5, i64 88
  store i64 20, ptr %6, align 8, !tbaa !10
  tail call void @llvm.memset.p0.i64(ptr noundef nonnull align 4 dereferenceable(80) %gep, i8 0, i64 80, i1 false), !tbaa !11
  %indvar.next = add nuw nsw i64 %indvar, 1
  %exitcond.not = icmp eq i64 %indvar.next, 6
  br i1 %exitcond.not, label %7, label %3, !llvm.loop !12

7:                                                ; preds = %3
  %8 = getelementptr inbounds nuw i8, ptr %0, i64 1096
  store i32 -1, ptr %8, align 8, !tbaa !14
  %9 = getelementptr inbounds nuw i8, ptr %0, i64 1104
  store i64 -1, ptr %9, align 8, !tbaa !17
  %10 = getelementptr inbounds nuw i8, ptr %0, i64 836
  store i32 -1, ptr %10, align 4, !tbaa !18
  %11 = getelementptr inbounds nuw i8, ptr %0, i64 832
  store i32 0, ptr %11, align 8, !tbaa !19
  ret void
}